; Function Attrs: mustprogress nounwind uwtable
define dso_local noundef i32 @_ZN4llvm15StatepointOpers15getGCPointerMapERNS_15SmallVectorImplISt4pairIjjEEE(ptr nocapture noundef nonnull readonly align 8 dereferenceable(12) %0, ptr noundef nonnull align 8 dereferenceable(16) %1) local_unnamed_addr #0 align 2 {
  %3 = tail call noundef i32 @_ZN4llvm15StatepointOpers21getNumGcMapEntriesIdxEv(ptr noundef nonnull align 8 dereferenceable(12) %0)
  %4 = load ptr, ptr %0, align 8
  %5 = getelementptr i8, ptr %4, i64 32
  %.val = load ptr, ptr %5, align 8
  %6 = zext i32 %3 to i64
  %7 = getelementptr inbounds %"class.llvm::MachineOperand", ptr %.val, i64 %6, i32 3
  %8 = load i64, ptr %7, align 8
  %9 = trunc i64 %8 to i32
  %.not = icmp eq i32 %9, 0
  br i1 %.not, label %._crit_edge, label %.lr.ph

.lr.ph:                                           ; preds = %2
  %10 = getelementptr inbounds i8, ptr %1, i64 16
  br label %11

11:                                               ; preds = %.lr.ph, %_ZN4llvm23SmallVectorTemplateBaseISt4pairIjjELb1EE9push_backES2_.exit
  %.0.in13 = phi i32 [ %3, %.lr.ph ], [ %13, %_ZN4llvm23SmallVectorTemplateBaseISt4pairIjjELb1EE9push_backES2_.exit ]
  %.0912 = phi i32 [ 0, %.lr.ph ], [ %31, %_ZN4llvm23SmallVectorTemplateBaseISt4pairIjjELb1EE9push_backES2_.exit ]
  %.0 = add i32 %.0.in13, 1
  %12 = load ptr, ptr %0, align 8
  %13 = add i32 %.0.in13, 2
  %14 = getelementptr inbounds nuw i8, ptr %12, i64 32
  %15 = load ptr, ptr %14, align 8
  %16 = zext i32 %.0 to i64
  %17 = getelementptr inbounds %"class.llvm::MachineOperand", ptr %15, i64 %16, i32 3
  %18 = load i64, ptr %17, align 8
  %19 = zext i32 %13 to i64
  %20 = getelementptr inbounds %"class.llvm::MachineOperand", ptr %15, i64 %19, i32 3
  %21 = load i64, ptr %20, align 8
  %.sroa.2.0.insert.ext.i = shl i64 %21, 32
  %.sroa.0.0.insert.ext.i = and i64 %18, 4294967295
  %.sroa.0.0.insert.insert.i = or disjoint i64 %.sroa.2.0.insert.ext.i, %.sroa.0.0.insert.ext.i
  %22 = tail call noundef i64 @_ZNK4llvm15SmallVectorBaseIjE4sizeEv(ptr noundef nonnull align 8 dereferenceable(16) %1) #19
  %23 = add i64 %22, 1
  %24 = tail call noundef i64 @_ZNK4llvm15SmallVectorBaseIjE8capacityEv(ptr noundef nonnull align 8 dereferenceable(16) %1) #19
  %.not.i.i.i = icmp ugt i64 %23, %24
  br i1 %.not.i.i.i, label %25, label %_ZN4llvm23SmallVectorTemplateBaseISt4pairIjjELb1EE9push_backES2_.exit

25:                                               ; preds = %11
  tail call void @_ZN4llvm15SmallVectorBaseIjE8grow_podEPvmm(ptr noundef nonnull align 8 dereferenceable(16) %1, ptr noundef nonnull %10, i64 noundef %23, i64 noundef 8) #19
  br label %_ZN4llvm23SmallVectorTemplateBaseISt4pairIjjELb1EE9push_backES2_.exit

_ZN4llvm23SmallVectorTemplateBaseISt4pairIjjELb1EE9push_backES2_.exit: ; preds = %11, %25
  %26 = load ptr, ptr %1, align 8
  %27 = tail call noundef i64 @_ZNK4llvm15SmallVectorBaseIjE4sizeEv(ptr noundef nonnull align 8 dereferenceable(16) %1) #19
  %28 = getelementptr inbounds %"struct.std::pair", ptr %26, i64 %27
  store i64 %.sroa.0.0.insert.insert.i, ptr %28, align 1
  %29 = tail call noundef i64 @_ZNK4llvm15SmallVectorBaseIjE4sizeEv(ptr noundef nonnull align 8 dereferenceable(16) %1) #19
  %30 = add i64 %29, 1
  tail call void @_ZN4llvm15SmallVectorBaseIjE8set_sizeEm(ptr noundef nonnull align 8 dereferenceable(16) %1, i64 noundef %30) #19
  %31 = add nuw i32 %.0912, 1
  %exitcond.not = icmp eq i32 %31, %9
  br i1 %exitcond.not, label %._crit_edge, label %11, !llvm.loop !9

._crit_edge:                                      ; preds = %_ZN4llvm23SmallVectorTemplateBaseISt4pairIjjELb1EE9push_backES2_.exit, %2
  ret i32 %9
}